
Allocating common symbols
Common symbol       size              file

g_test_proc_table   0x54              system.o
g_priority_ready_tracker
                    0x8               system.o
g_priority_ready    0x150             system.o
gp_mem_pool_list    0x80              memory.o
old_stack           0x4               /tmp/ccskaJyA.o
gp_mem_pool_lookup  0x80              memory.o
main_stack          0x1000            /tmp/ccskaJyA.o
g_null_proc         0xe               system.o
g_current_process   0x4               system.o

Memory Configuration

Name             Origin             Length             Attributes
ram              0x10100000         0x00100000
*default*        0x00000000         0xffffffff

Linker script and memory map

LOAD /tmp/ccskaJyA.o
LOAD /tmp/ccGihiq1.o
LOAD dbug.o
LOAD Hex_to_ASCII.o
LOAD null_process.o
LOAD dummy_processes.o
LOAD system.o
LOAD memory.o
LOAD main.o
START GROUP
LOAD /opt/gcc-coldfire/bin/../lib/gcc/m68k-elf/4.3.2/m5307/libgcc.a
END GROUP
                0x00000000                __DYNAMIC = 0x0
                0x00000000                PROVIDE (hardware_init_hook, 0x0)
                0x00000000                PROVIDE (_hardware_init_hook, 0x0)
                0x00000000                PROVIDE (software_init_hook, 0x0)
                0x00000000                PROVIDE (_software_init_hook, 0x0)

.text           0x10100000      0xe5e
 *(.text)
 .text          0x10100000       0x1e /tmp/ccskaJyA.o
 *fill*         0x1010001e        0x2 00
 .text          0x10100020       0x54 /tmp/ccGihiq1.o
                0x10100020                asm_trap_entry
 .text          0x10100074       0x9a dbug.o
                0x10100094                rtx_dbug_outs
                0x10100074                rtx_dbug_out_char
 *fill*         0x1010010e        0x2 00
 .text          0x10100110      0x126 Hex_to_ASCII.o
                0x10100110                printHexAddress
 *fill*         0x10100236        0x2 00
 .text          0x10100238       0x1a null_process.o
                0x10100238                null_process
 *fill*         0x10100252        0x2 00
 .text          0x10100254       0xb0 dummy_processes.o
                0x101002d0                test_proc_5
                0x101002b6                test_proc_4
                0x1010029c                test_proc_3
                0x10100254                test_proc_1
                0x10100282                test_proc_2
                0x101002ea                test_proc_6
 .text          0x10100304      0x960 system.o
                0x10100304                sys_init
                0x1010083c                get_process_priority
                0x101007ac                set_process_priority
                0x10100790                send_message
                0x10100678                scheduler
                0x101008be                pop
                0x101007a2                receive_message
                0x1010074a                release_processor
                0x10100990                push
 .text          0x10100c64      0x14a memory.o
                0x10100d34                s_release_memory_block
                0x10100c64                init_memory
                0x10100cc4                s_request_memory_block
 *fill*         0x10100dae        0x2 00
 .text          0x10100db0       0x1a main.o
                0x10100db0                __main
                0x10100dba                main
                0x10100dcc                . = ALIGN (0x4)
 *fill*         0x10100dca        0x2 00
                0x10100dcc                __CTOR_LIST__ = .
                0x10100dcc        0x4 LONG 0x0 (((__CTOR_END__ - __CTOR_LIST__) / 0x4) - 0x2)
 *(.ctors)
                0x10100dd0        0x4 LONG 0x0
                0x10100dd4                __CTOR_END__ = .
                0x10100dd4                __DTOR_LIST__ = .
                0x10100dd4        0x4 LONG 0x0 (((__DTOR_END__ - __DTOR_LIST__) / 0x4) - 0x2)
 *(.dtors)
                0x10100dd8        0x4 LONG 0x0
                0x10100ddc                __DTOR_END__ = .
 *(.rodata*)
 .rodata        0x10100ddc        0x3 Hex_to_ASCII.o
 .rodata        0x10100ddf        0xf null_process.o
 .rodata        0x10100dee       0x1c dummy_processes.o
 .rodata        0x10100e0a       0x44 system.o
 *(.gcc_except_table)
                0x10100e4e                __INIT_SECTION__ = .
                0x10100e4e        0x4 LONG 0x4e560000
 *(.init)
                0x10100e52        0x2 SHORT 0x4e5e
                0x10100e54        0x2 SHORT 0x4e75
                0x10100e56                __FINI_SECTION__ = .
                0x10100e56        0x4 LONG 0x4e560000
 *(.fini)
                0x10100e5a        0x2 SHORT 0x4e5e
                0x10100e5c        0x2 SHORT 0x4e75
                0x10100e5e                _etext = .
 *(.lit)

.data           0x10100e60        0x4
 *(.shdata)
 *(.data)
 .data          0x10100e60        0x0 /tmp/ccskaJyA.o
 .data          0x10100e60        0x0 /tmp/ccGihiq1.o
 .data          0x10100e60        0x0 dbug.o
 .data          0x10100e60        0x0 Hex_to_ASCII.o
 .data          0x10100e60        0x0 null_process.o
 .data          0x10100e60        0x0 dummy_processes.o
 .data          0x10100e60        0x1 system.o
                0x10100e60                g_first_run
 *fill*         0x10100e61        0x3 00
 .data          0x10100e64        0x0 memory.o
 .data          0x10100e64        0x0 main.o
                0x10100e64                _edata = .

.bss            0x10100e64     0x12da
                0x10100e64                __bss_start = .
 *(.shbss)
 *(.bss)
 .bss           0x10100e64        0x0 /tmp/ccskaJyA.o
 .bss           0x10100e64        0x0 /tmp/ccGihiq1.o
 .bss           0x10100e64        0x0 dbug.o
 .bss           0x10100e64        0x0 Hex_to_ASCII.o
 .bss           0x10100e64        0x0 null_process.o
 .bss           0x10100e64        0x0 dummy_processes.o
 .bss           0x10100e64        0x8 system.o
                0x10100e64                g_asmBridge
                0x10100e68                g_kernelStack
 .bss           0x10100e6c        0x0 memory.o
 .bss           0x10100e6c        0x0 main.o
 *(COMMON)
 *fill*         0x10100e6c        0x4 00
 COMMON         0x10100e70     0x1010 /tmp/ccskaJyA.o
                0x10100e70                old_stack
                0x10100e80                main_stack
 COMMON         0x10101e80      0x1be system.o
                0x10101e80                g_test_proc_table
                0x10101ed4                g_priority_ready_tracker
                0x10101edc                g_priority_ready
                0x1010202c                g_null_proc
                0x1010203a                g_current_process
 COMMON         0x1010203e      0x100 memory.o
                0x1010203e                gp_mem_pool_list
                0x101020be                gp_mem_pool_lookup
                0x10102140                _end = ALIGN (0x8)
                0x10102140                __end = _end

.stab
 *(.stab)

.stabstr
 *(.stabstr)

__REGISTER_RTX__
                0x10300000        0x0
                0x10300000                __REGISTER_RTX_ENTRY__ = <code 345> (.)
 *(__REGISTER_RTX__)
                0x10380000                __REGISTER_TEST_PROCS_ENTRY__ = 0x10380000
                0x10400000                __RTX_TEST_CODE_ENTRY__ = 0x10400000

__RTX_TEST_DATA__
 *(__RTX_TEST_DATA__)
OUTPUT(main.bin elf32-m68k)

.comment        0x00000000      0x111
 .comment       0x00000000       0x27 dbug.o
 .comment       0x00000027       0x27 Hex_to_ASCII.o
 .comment       0x0000004e       0x27 null_process.o
 .comment       0x00000075       0x27 dummy_processes.o
 .comment       0x0000009c       0x27 system.o
 .comment       0x000000c3       0x27 memory.o
 .comment       0x000000ea       0x27 main.o
