
main.bin:     file format elf32-m68k
main.bin
architecture: m68k:isa-a:mac, flags 0x00000112:
EXEC_P, HAS_SYMS, D_PAGED
start address 0x10100000

Program Header:
    LOAD off    0x00002000 vaddr 0x10100000 paddr 0x10100000 align 2**13
         filesz 0x00000f28 memsz 0x00002106 flags rwx
private flags = 12: [isa A] [mac]

Sections:
Idx Name          Size      VMA       LMA       File off  Algn
  0 .text         00000f1e  10100000  10100000  00002000  2**2
                  CONTENTS, ALLOC, LOAD, READONLY, CODE
  1 .data         00000008  10100f20  10100f20  00002f20  2**2
                  CONTENTS, ALLOC, LOAD, DATA
  2 .bss          000011de  10100f28  10100f28  00002f28  2**4
                  ALLOC
  3 .comment      000000ea  00000000  00000000  00002f28  2**0
                  CONTENTS, READONLY
SYMBOL TABLE:
10100000 l    d  .text	00000000 .text
10100f20 l    d  .data	00000000 .data
10100f28 l    d  .bss	00000000 .bss
00000000 l    d  .comment	00000000 .comment
00000000 l    df *ABS*	00000000 dbug.c
00000000 l    df *ABS*	00000000 Hex_to_ASCII.c
00000000 l    df *ABS*	00000000 null_process.c
00000000 l    df *ABS*	00000000 dummy_processes.c
10100260 l       .text	00000000 proc1
00000000 l    df *ABS*	00000000 system.c
00000000 l    df *ABS*	00000000 main.c
10101f40 g     O .bss	00000030 g_queue_slots
10100e78 g     F .text	0000000a __main
101002cc g     F .text	00000018 test_proc_5
101002b4 g     F .text	00000018 test_proc_4
10400000 g       *ABS*	00000000 __RTX_TEST_CODE_ENTRY__
10100f2c g     O .bss	00000004 g_asmBridge
10100f1e g       .text	00000000 _etext
10101f70 g     O .bss	00000060 g_proc_table
1010029c g     F .text	00000018 test_proc_3
101002fc g     F .text	00000374 sys_init
10100ea4 g       .text	00000000 __DTOR_END__
10100f16 g       .text	00000000 __FINI_SECTION__
00000000 g       *ABS*	00000000 __DYNAMIC
10300000 g       *ABS*	00000000 __REGISTER_RTX_ENTRY__
10101fd0 g     O .bss	00000080 gp_mem_pool_list
10100240 g     F .text	0000001a null_process
10100f28 g     O .bss	00000004 g_kernelStack
1010009c g     F .text	0000007a rtx_dbug_outs
10100f20 g     O .data	00000001 g_first_run
10100f30 g     O .bss	00000004 old_stack
10100118 g     F .text	00000126 printHexAddress
10380000 g       *ABS*	00000000 __REGISTER_TEST_PROCS_ENTRY__
10100d14 g     F .text	00000076 get_process_priority
10100f0e g       .text	00000000 __INIT_SECTION__
10100d8a g     F .text	00000070 request_memory_block
10100eae g     O .text	00000060 process_init_table
1010090e g     F .text	00000098 set_process_priority
1010007c g     F .text	00000020 rtx_dbug_out_char
10100dfa g     F .text	0000007c s_release_memory_block
10102050 g     O .bss	00000032 g_priority_queues
10100e94 g       .text	00000000 __CTOR_LIST__
10102082 g     O .bss	00000080 gp_mem_pool_lookup
101007b2 g     F .text	00000012 send_message
10102108 g       .bss	00000000 __end
10100f40 g     O .bss	00001000 main_stack
1010025c g     F .text	00000028 test_proc_1
10100670 g     F .text	000000fa scheduler
101007ce g     F .text	0000006e pop
10100f28 g       .bss	00000000 __bss_start
10100e82 g     F .text	00000010 main
10100074 g       .text	00000000 trap_1_handler
10100e9c g       .text	00000000 __CTOR_END__
10100e9c g       .text	00000000 __DTOR_LIST__
10100020 g       .text	00000000 asm_trap_entry
10100284 g     F .text	00000018 test_proc_2
10100f22 g     O .data	00000004 g_free_mem
101009a6 g     F .text	0000036e set_process_priority_trap_handler
10100f28 g       .data	00000000 _edata
101007c4 g     F .text	0000000a receive_message
10102108 g       .bss	00000000 _end
1010076a g     F .text	00000048 release_processor
101002e4 g     F .text	00000018 test_proc_6
1010083c g     F .text	000000d2 push
10102102 g     O .bss	00000004 g_current_process


Disassembly of section .text:

10100000 <asm_trap_entry-0x20>:
10100000:	23cf 1010 0f30 	movel %sp,10100f30 <old_stack>
10100006:	2e7c 1010 1f40 	moveal #269492032,%sp
1010000c:	4eb9 1010 0e82 	jsr 10100e82 <main>
10100012:	2e79 1010 0f30 	moveal 10100f30 <old_stack>,%sp
10100018:	2e00           	movel %d0,%d7
1010001a:	7000           	moveq #0,%d0
1010001c:	4e4f           	trap #15
	...

10100020 <asm_trap_entry>:
10100020:	588f           	addql #4,%sp
10100022:	2eb9 1010 0f2c 	movel 10100f2c <g_asmBridge>,%sp@
10100028:	598f           	subql #4,%sp
1010002a:	2f00           	movel %d0,%sp@-
1010002c:	2f01           	movel %d1,%sp@-
1010002e:	2f02           	movel %d2,%sp@-
10100030:	2f03           	movel %d3,%sp@-
10100032:	2f04           	movel %d4,%sp@-
10100034:	2f05           	movel %d5,%sp@-
10100036:	2f06           	movel %d6,%sp@-
10100038:	2f07           	movel %d7,%sp@-
1010003a:	2f08           	movel %a0,%sp@-
1010003c:	2f09           	movel %a1,%sp@-
1010003e:	2f0a           	movel %a2,%sp@-
10100040:	2f0b           	movel %a3,%sp@-
10100042:	2f0c           	movel %a4,%sp@-
10100044:	2f0d           	movel %a5,%sp@-
10100046:	2f0e           	movel %fp,%sp@-
10100048:	4eb9 1010 0670 	jsr 10100670 <scheduler>
1010004e:	2e79 1010 0f2c 	moveal 10100f2c <g_asmBridge>,%sp
10100054:	2c5f           	moveal %sp@+,%fp
10100056:	2a5f           	moveal %sp@+,%a5
10100058:	285f           	moveal %sp@+,%a4
1010005a:	265f           	moveal %sp@+,%a3
1010005c:	245f           	moveal %sp@+,%a2
1010005e:	225f           	moveal %sp@+,%a1
10100060:	205f           	moveal %sp@+,%a0
10100062:	2e1f           	movel %sp@+,%d7
10100064:	2c1f           	movel %sp@+,%d6
10100066:	2a1f           	movel %sp@+,%d5
10100068:	281f           	movel %sp@+,%d4
1010006a:	261f           	movel %sp@+,%d3
1010006c:	241f           	movel %sp@+,%d2
1010006e:	221f           	movel %sp@+,%d1
10100070:	201f           	movel %sp@+,%d0
10100072:	4e73           	rte

10100074 <trap_1_handler>:
10100074:	4eb9 1010 09a6 	jsr 101009a6 <set_process_priority_trap_handler>
1010007a:	4e73           	rte

1010007c <rtx_dbug_out_char>:
1010007c:	4e56 fffc      	linkw %fp,#-4
10100080:	202e 0008      	movel %fp@(8),%d0
10100084:	1d40 fffe      	moveb %d0,%fp@(-2)
10100088:	2f00           	movel %d0,%sp@-
1010008a:	2f01           	movel %d1,%sp@-
1010008c:	222e 0008      	movel %fp@(8),%d1
10100090:	7013           	moveq #19,%d0
10100092:	4e4f           	trap #15
10100094:	221f           	movel %sp@+,%d1
10100096:	201f           	movel %sp@+,%d0
10100098:	4e5e           	unlk %fp
1010009a:	4e75           	rts

1010009c <rtx_dbug_outs>:
1010009c:	4e56 fffc      	linkw %fp,#-4
101000a0:	4aae 0008      	tstl %fp@(8)
101000a4:	6608           	bnes 101000ae <rtx_dbug_outs+0x12>
101000a6:	70ff           	moveq #-1,%d0
101000a8:	2d40 fffc      	movel %d0,%fp@(-4)
101000ac:	6060           	bras 1010010e <rtx_dbug_outs+0x72>
101000ae:	206e 0008      	moveal %fp@(8),%a0
101000b2:	d1fc 0000 000c 	addal #12,%a0
101000b8:	1010           	moveb %a0@,%d0
101000ba:	49c0           	extbl %d0
101000bc:	720d           	moveq #13,%d1
101000be:	b280           	cmpl %d0,%d1
101000c0:	6714           	beqs 101000d6 <rtx_dbug_outs+0x3a>
101000c2:	206e 0008      	moveal %fp@(8),%a0
101000c6:	d1fc 0000 000c 	addal #12,%a0
101000cc:	1010           	moveb %a0@,%d0
101000ce:	49c0           	extbl %d0
101000d0:	720a           	moveq #10,%d1
101000d2:	b280           	cmpl %d0,%d1
101000d4:	662a           	bnes 10100100 <rtx_dbug_outs+0x64>
101000d6:	4878 000d      	pea d <__DYNAMIC+0xd>
101000da:	4eba ffa0      	jsr %pc@(1010007c <rtx_dbug_out_char>)
101000de:	588f           	addql #4,%sp
101000e0:	4878 000a      	pea a <__DYNAMIC+0xa>
101000e4:	4eba ff96      	jsr %pc@(1010007c <rtx_dbug_out_char>)
101000e8:	588f           	addql #4,%sp
101000ea:	601e           	bras 1010010a <rtx_dbug_outs+0x6e>
101000ec:	206e 0008      	moveal %fp@(8),%a0
101000f0:	1010           	moveb %a0@,%d0
101000f2:	49c0           	extbl %d0
101000f4:	52ae 0008      	addql #1,%fp@(8)
101000f8:	2f00           	movel %d0,%sp@-
101000fa:	4eba ff80      	jsr %pc@(1010007c <rtx_dbug_out_char>)
101000fe:	588f           	addql #4,%sp
10100100:	206e 0008      	moveal %fp@(8),%a0
10100104:	1010           	moveb %a0@,%d0
10100106:	4a00           	tstb %d0
10100108:	66e2           	bnes 101000ec <rtx_dbug_outs+0x50>
1010010a:	42ae fffc      	clrl %fp@(-4)
1010010e:	202e fffc      	movel %fp@(-4),%d0
10100112:	4e5e           	unlk %fp
10100114:	4e75           	rts
	...

10100118 <printHexAddress>:
10100118:	4e56 fff0      	linkw %fp,#-16
1010011c:	203c 1000 0000 	movel #268435456,%d0
10100122:	2d40 fffa      	movel %d0,%fp@(-6)
10100126:	4201           	clrb %d1
10100128:	1d41 fffe      	moveb %d1,%fp@(-2)
1010012c:	4879 1010 0ea4 	pea 10100ea4 <__DTOR_END__>
10100132:	4eb9 1010 009c 	jsr 1010009c <rtx_dbug_outs>
10100138:	588f           	addql #4,%sp
1010013a:	4200           	clrb %d0
1010013c:	1d40 ffff      	moveb %d0,%fp@(-1)
10100140:	4201           	clrb %d1
10100142:	1d41 ffff      	moveb %d1,%fp@(-1)
10100146:	6000 00e4      	braw 1010022c <printHexAddress+0x114>
1010014a:	202e 0008      	movel %fp@(8),%d0
1010014e:	4c6e 0001 fffa 	remul %fp@(-6),%d1,%d0
10100154:	4c6e 0000 fffa 	remul %fp@(-6),%d0,%d0
1010015a:	1d40 fffe      	moveb %d0,%fp@(-2)
1010015e:	102e fffe      	moveb %fp@(-2),%d0
10100162:	49c0           	extbl %d0
10100164:	41ee fffa      	lea %fp@(-6),%a0
10100168:	4c10 0800      	mulsl %a0@,%d0
1010016c:	91ae 0008      	subl %d0,%fp@(8)
10100170:	202e fffa      	movel %fp@(-6),%d0
10100174:	e888           	lsrl #4,%d0
10100176:	2d40 fffa      	movel %d0,%fp@(-6)
1010017a:	102e fffe      	moveb %fp@(-2),%d0
1010017e:	49c0           	extbl %d0
10100180:	2200           	movel %d0,%d1
10100182:	0681 ffff fff6 	addil #-10,%d1
10100188:	2d41 fff0      	movel %d1,%fp@(-16)
1010018c:	7005           	moveq #5,%d0
1010018e:	b0ae fff0      	cmpl %fp@(-16),%d0
10100192:	656e           	bcss 10100202 <printHexAddress+0xea>
10100194:	222e fff0      	movel %fp@(-16),%d1
10100198:	303b 1a08      	movew %pc@(101001a2 <printHexAddress+0x8a>,%d1:l:2),%d0
1010019c:	48c0           	extl %d0
1010019e:	4efb 0802      	jmp %pc@(101001a2 <printHexAddress+0x8a>,%d0:l)
101001a2:	0052           	0122
101001a4:	0044           	0104
101001a6:	0036           	066
101001a8:	0028           	050
101001aa:	001a           	032
101001ac:	000c           	014
101001ae:	4878 0046      	pea 46 <__DYNAMIC+0x46>
101001b2:	4eb9 1010 007c 	jsr 1010007c <rtx_dbug_out_char>
101001b8:	588f           	addql #4,%sp
101001ba:	6066           	bras 10100222 <printHexAddress+0x10a>
101001bc:	4878 0045      	pea 45 <__DYNAMIC+0x45>
101001c0:	4eb9 1010 007c 	jsr 1010007c <rtx_dbug_out_char>
101001c6:	588f           	addql #4,%sp
101001c8:	6058           	bras 10100222 <printHexAddress+0x10a>
101001ca:	4878 0044      	pea 44 <__DYNAMIC+0x44>
101001ce:	4eb9 1010 007c 	jsr 1010007c <rtx_dbug_out_char>
101001d4:	588f           	addql #4,%sp
101001d6:	604a           	bras 10100222 <printHexAddress+0x10a>
101001d8:	4878 0043      	pea 43 <__DYNAMIC+0x43>
101001dc:	4eb9 1010 007c 	jsr 1010007c <rtx_dbug_out_char>
101001e2:	588f           	addql #4,%sp
101001e4:	603c           	bras 10100222 <printHexAddress+0x10a>
101001e6:	4878 0042      	pea 42 <__DYNAMIC+0x42>
101001ea:	4eb9 1010 007c 	jsr 1010007c <rtx_dbug_out_char>
101001f0:	588f           	addql #4,%sp
101001f2:	602e           	bras 10100222 <printHexAddress+0x10a>
101001f4:	4878 0041      	pea 41 <__DYNAMIC+0x41>
101001f8:	4eb9 1010 007c 	jsr 1010007c <rtx_dbug_out_char>
101001fe:	588f           	addql #4,%sp
10100200:	6020           	bras 10100222 <printHexAddress+0x10a>
10100202:	102e fffe      	moveb %fp@(-2),%d0
10100206:	0680 0000 0030 	addil #48,%d0
1010020c:	1000           	moveb %d0,%d0
1010020e:	1d40 fffe      	moveb %d0,%fp@(-2)
10100212:	102e fffe      	moveb %fp@(-2),%d0
10100216:	49c0           	extbl %d0
10100218:	2f00           	movel %d0,%sp@-
1010021a:	4eb9 1010 007c 	jsr 1010007c <rtx_dbug_out_char>
10100220:	588f           	addql #4,%sp
10100222:	102e ffff      	moveb %fp@(-1),%d0
10100226:	5280           	addql #1,%d0
10100228:	1d40 ffff      	moveb %d0,%fp@(-1)
1010022c:	4280           	clrl %d0
1010022e:	102e ffff      	moveb %fp@(-1),%d0
10100232:	7207           	moveq #7,%d1
10100234:	b280           	cmpl %d0,%d1
10100236:	6400 ff12      	bccw 1010014a <printHexAddress+0x32>
1010023a:	4e5e           	unlk %fp
1010023c:	4e75           	rts
	...

10100240 <null_process>:
10100240:	4e56 0000      	linkw %fp,#0
10100244:	4879 1010 0ea7 	pea 10100ea7 <__DTOR_END__+0x3>
1010024a:	4eb9 1010 009c 	jsr 1010009c <rtx_dbug_outs>
10100250:	588f           	addql #4,%sp
10100252:	4eb9 1010 076a 	jsr 1010076a <release_processor>
10100258:	60ea           	bras 10100244 <null_process+0x4>
	...

1010025c <test_proc_1>:
1010025c:	4e56 0000      	linkw %fp,#0

10100260 <proc1>:
10100260:	4878 0031      	pea 31 <__DYNAMIC+0x31>
10100264:	4eb9 1010 007c 	jsr 1010007c <rtx_dbug_out_char>
1010026a:	588f           	addql #4,%sp
1010026c:	4eb9 1010 076a 	jsr 1010076a <release_processor>
10100272:	4878 0001      	pea 1 <__DYNAMIC+0x1>
10100276:	4878 0002      	pea 2 <__DYNAMIC+0x2>
1010027a:	4eb9 1010 090e 	jsr 1010090e <set_process_priority>
10100280:	508f           	addql #8,%sp
10100282:	60dc           	bras 10100260 <proc1>

10100284 <test_proc_2>:
10100284:	4e56 0000      	linkw %fp,#0
10100288:	4878 0032      	pea 32 <__DYNAMIC+0x32>
1010028c:	4eb9 1010 007c 	jsr 1010007c <rtx_dbug_out_char>
10100292:	588f           	addql #4,%sp
10100294:	4eb9 1010 076a 	jsr 1010076a <release_processor>
1010029a:	60ec           	bras 10100288 <test_proc_2+0x4>

1010029c <test_proc_3>:
1010029c:	4e56 0000      	linkw %fp,#0
101002a0:	4878 0033      	pea 33 <__DYNAMIC+0x33>
101002a4:	4eb9 1010 007c 	jsr 1010007c <rtx_dbug_out_char>
101002aa:	588f           	addql #4,%sp
101002ac:	4eb9 1010 076a 	jsr 1010076a <release_processor>
101002b2:	60ec           	bras 101002a0 <test_proc_3+0x4>

101002b4 <test_proc_4>:
101002b4:	4e56 0000      	linkw %fp,#0
101002b8:	4878 0034      	pea 34 <__DYNAMIC+0x34>
101002bc:	4eb9 1010 007c 	jsr 1010007c <rtx_dbug_out_char>
101002c2:	588f           	addql #4,%sp
101002c4:	4eb9 1010 076a 	jsr 1010076a <release_processor>
101002ca:	60ec           	bras 101002b8 <test_proc_4+0x4>

101002cc <test_proc_5>:
101002cc:	4e56 0000      	linkw %fp,#0
101002d0:	4878 0035      	pea 35 <__DYNAMIC+0x35>
101002d4:	4eb9 1010 007c 	jsr 1010007c <rtx_dbug_out_char>
101002da:	588f           	addql #4,%sp
101002dc:	4eb9 1010 076a 	jsr 1010076a <release_processor>
101002e2:	60ec           	bras 101002d0 <test_proc_5+0x4>

101002e4 <test_proc_6>:
101002e4:	4e56 0000      	linkw %fp,#0
101002e8:	4878 0036      	pea 36 <__DYNAMIC+0x36>
101002ec:	4eb9 1010 007c 	jsr 1010007c <rtx_dbug_out_char>
101002f2:	588f           	addql #4,%sp
101002f4:	4eb9 1010 076a 	jsr 1010076a <release_processor>
101002fa:	60ec           	bras 101002e8 <test_proc_6+0x4>

101002fc <sys_init>:
101002fc:	4e56 fff8      	linkw %fp,#-8
10100300:	2f02           	movel %d2,%sp@-
10100302:	2039 1010 0f22 	movel 10100f22 <g_free_mem>,%d0
10100308:	0680 0000 0800 	addil #2048,%d0
1010030e:	23c0 1010 0f22 	movel %d0,10100f22 <g_free_mem>
10100314:	2039 1010 0f22 	movel 10100f22 <g_free_mem>,%d0
1010031a:	23c0 1010 0f28 	movel %d0,10100f28 <_edata>
10100320:	2039 1010 0f28 	movel 10100f28 <_edata>,%d0
10100326:	23c0 1010 0f2c 	movel %d0,10100f2c <g_asmBridge>
1010032c:	2e79 1010 0f2c 	moveal 10100f2c <g_asmBridge>,%sp
10100332:	203c 1010 0020 	movel #269484064,%d0
10100338:	23c0 1000 0080 	movel %d0,10000080 <__DYNAMIC+0x10000080>
1010033e:	203c 1010 0074 	movel #269484148,%d0
10100344:	23c0 1000 0084 	movel %d0,10000084 <__DYNAMIC+0x10000084>
1010034a:	4200           	clrb %d0
1010034c:	1d40 fff9      	moveb %d0,%fp@(-7)
10100350:	4201           	clrb %d1
10100352:	1d41 fff9      	moveb %d1,%fp@(-7)
10100356:	604e           	bras 101003a6 <sys_init+0xaa>
10100358:	4280           	clrl %d0
1010035a:	102e fff9      	moveb %fp@(-7),%d0
1010035e:	e588           	lsll #2,%d0
10100360:	41f9 1010 2082 	lea 10102082 <gp_mem_pool_lookup>,%a0
10100366:	42b0 0800      	clrl %a0@(00000000,%d0:l)
1010036a:	4282           	clrl %d2
1010036c:	142e fff9      	moveb %fp@(-7),%d2
10100370:	4280           	clrl %d0
10100372:	102e fff9      	moveb %fp@(-7),%d0
10100376:	ef88           	lsll #7,%d0
10100378:	2200           	movel %d0,%d1
1010037a:	2039 1010 0f22 	movel 10100f22 <g_free_mem>,%d0
10100380:	d081           	addl %d1,%d0
10100382:	23c0 1010 0f22 	movel %d0,10100f22 <g_free_mem>
10100388:	2239 1010 0f22 	movel 10100f22 <g_free_mem>,%d1
1010038e:	2002           	movel %d2,%d0
10100390:	e588           	lsll #2,%d0
10100392:	41f9 1010 1fd0 	lea 10101fd0 <gp_mem_pool_list>,%a0
10100398:	2181 0800      	movel %d1,%a0@(00000000,%d0:l)
1010039c:	102e fff9      	moveb %fp@(-7),%d0
101003a0:	5280           	addql #1,%d0
101003a2:	1d40 fff9      	moveb %d0,%fp@(-7)
101003a6:	4280           	clrl %d0
101003a8:	102e fff9      	moveb %fp@(-7),%d0
101003ac:	721f           	moveq #31,%d1
101003ae:	b280           	cmpl %d0,%d1
101003b0:	64a6           	bccs 10100358 <sys_init+0x5c>
101003b2:	4200           	clrb %d0
101003b4:	1d40 fff9      	moveb %d0,%fp@(-7)
101003b8:	6054           	bras 1010040e <sys_init+0x112>
101003ba:	4280           	clrl %d0
101003bc:	102e fff9      	moveb %fp@(-7),%d0
101003c0:	d080           	addl %d0,%d0
101003c2:	2200           	movel %d0,%d1
101003c4:	e589           	lsll #2,%d1
101003c6:	d081           	addl %d1,%d0
101003c8:	41f9 1010 2050 	lea 10102050 <g_priority_queues>,%a0
101003ce:	42b0 0800      	clrl %a0@(00000000,%d0:l)
101003d2:	4280           	clrl %d0
101003d4:	102e fff9      	moveb %fp@(-7),%d0
101003d8:	d080           	addl %d0,%d0
101003da:	2200           	movel %d0,%d1
101003dc:	e589           	lsll #2,%d1
101003de:	d081           	addl %d1,%d0
101003e0:	41f9 1010 2054 	lea 10102054 <g_priority_queues+0x4>,%a0
101003e6:	42b0 0800      	clrl %a0@(00000000,%d0:l)
101003ea:	4280           	clrl %d0
101003ec:	102e fff9      	moveb %fp@(-7),%d0
101003f0:	d080           	addl %d0,%d0
101003f2:	2200           	movel %d0,%d1
101003f4:	e589           	lsll #2,%d1
101003f6:	d081           	addl %d1,%d0
101003f8:	41f9 1010 2058 	lea 10102058 <g_priority_queues+0x8>,%a0
101003fe:	7206           	moveq #6,%d1
10100400:	1181 0800      	moveb %d1,%a0@(00000000,%d0:l)
10100404:	102e fff9      	moveb %fp@(-7),%d0
10100408:	5280           	addql #1,%d0
1010040a:	1d40 fff9      	moveb %d0,%fp@(-7)
1010040e:	4280           	clrl %d0
10100410:	102e fff9      	moveb %fp@(-7),%d0
10100414:	7204           	moveq #4,%d1
10100416:	b280           	cmpl %d0,%d1
10100418:	64a0           	bccs 101003ba <sys_init+0xbe>
1010041a:	4200           	clrb %d0
1010041c:	1d40 fff9      	moveb %d0,%fp@(-7)
10100420:	6000 01fc      	braw 1010061e <sys_init+0x322>
10100424:	4282           	clrl %d2
10100426:	142e fff9      	moveb %fp@(-7),%d2
1010042a:	4280           	clrl %d0
1010042c:	102e fff9      	moveb %fp@(-7),%d0
10100430:	e988           	lsll #4,%d0
10100432:	41f9 1010 0eae 	lea 10100eae <process_init_table>,%a0
10100438:	2230 0800      	movel %a0@(00000000,%d0:l),%d1
1010043c:	2002           	movel %d2,%d0
1010043e:	e988           	lsll #4,%d0
10100440:	41f9 1010 1f70 	lea 10101f70 <g_proc_table>,%a0
10100446:	2181 0800      	movel %d1,%a0@(00000000,%d0:l)
1010044a:	4282           	clrl %d2
1010044c:	142e fff9      	moveb %fp@(-7),%d2
10100450:	4280           	clrl %d0
10100452:	102e fff9      	moveb %fp@(-7),%d0
10100456:	e588           	lsll #2,%d0
10100458:	5280           	addql #1,%d0
1010045a:	e588           	lsll #2,%d0
1010045c:	41f9 1010 0eae 	lea 10100eae <process_init_table>,%a0
10100462:	1230 0800      	moveb %a0@(00000000,%d0:l),%d1
10100466:	2002           	movel %d2,%d0
10100468:	e588           	lsll #2,%d0
1010046a:	5280           	addql #1,%d0
1010046c:	e588           	lsll #2,%d0
1010046e:	41f9 1010 1f70 	lea 10101f70 <g_proc_table>,%a0
10100474:	1181 0800      	moveb %d1,%a0@(00000000,%d0:l)
10100478:	4282           	clrl %d2
1010047a:	142e fff9      	moveb %fp@(-7),%d2
1010047e:	4280           	clrl %d0
10100480:	102e fff9      	moveb %fp@(-7),%d0
10100484:	e588           	lsll #2,%d0
10100486:	5280           	addql #1,%d0
10100488:	e588           	lsll #2,%d0
1010048a:	41f9 1010 0eae 	lea 10100eae <process_init_table>,%a0
10100490:	1230 0801      	moveb %a0@(00000001,%d0:l),%d1
10100494:	2002           	movel %d2,%d0
10100496:	e588           	lsll #2,%d0
10100498:	5280           	addql #1,%d0
1010049a:	e588           	lsll #2,%d0
1010049c:	41f9 1010 1f70 	lea 10101f70 <g_proc_table>,%a0
101004a2:	1181 0801      	moveb %d1,%a0@(00000001,%d0:l)
101004a6:	4282           	clrl %d2
101004a8:	142e fff9      	moveb %fp@(-7),%d2
101004ac:	4280           	clrl %d0
101004ae:	102e fff9      	moveb %fp@(-7),%d0
101004b2:	e988           	lsll #4,%d0
101004b4:	41f9 1010 0eb8 	lea 10100eb8 <process_init_table+0xa>,%a0
101004ba:	2230 0800      	movel %a0@(00000000,%d0:l),%d1
101004be:	2002           	movel %d2,%d0
101004c0:	e988           	lsll #4,%d0
101004c2:	41f9 1010 1f7a 	lea 10101f7a <g_proc_table+0xa>,%a0
101004c8:	2181 0800      	movel %d1,%a0@(00000000,%d0:l)
101004cc:	4282           	clrl %d2
101004ce:	142e fff9      	moveb %fp@(-7),%d2
101004d2:	4280           	clrl %d0
101004d4:	102e fff9      	moveb %fp@(-7),%d0
101004d8:	e988           	lsll #4,%d0
101004da:	41f9 1010 0eb4 	lea 10100eb4 <process_init_table+0x6>,%a0
101004e0:	2230 0800      	movel %a0@(00000000,%d0:l),%d1
101004e4:	2039 1010 0f22 	movel 10100f22 <g_free_mem>,%d0
101004ea:	d081           	addl %d1,%d0
101004ec:	23c0 1010 0f22 	movel %d0,10100f22 <g_free_mem>
101004f2:	2239 1010 0f22 	movel 10100f22 <g_free_mem>,%d1
101004f8:	2002           	movel %d2,%d0
101004fa:	e988           	lsll #4,%d0
101004fc:	41f9 1010 1f76 	lea 10101f76 <g_proc_table+0x6>,%a0
10100502:	2181 0800      	movel %d1,%a0@(00000000,%d0:l)
10100506:	4280           	clrl %d0
10100508:	102e fff9      	moveb %fp@(-7),%d0
1010050c:	e988           	lsll #4,%d0
1010050e:	41f9 1010 1f7e 	lea 10101f7e <g_proc_table+0xe>,%a0
10100514:	50c1           	st %d1
10100516:	1181 0800      	moveb %d1,%a0@(00000000,%d0:l)
1010051a:	4280           	clrl %d0
1010051c:	102e fff9      	moveb %fp@(-7),%d0
10100520:	d080           	addl %d0,%d0
10100522:	5280           	addql #1,%d0
10100524:	e588           	lsll #2,%d0
10100526:	41f9 1010 1f40 	lea 10101f40 <g_queue_slots>,%a0
1010052c:	42b0 0800      	clrl %a0@(00000000,%d0:l)
10100530:	4280           	clrl %d0
10100532:	102e fff9      	moveb %fp@(-7),%d0
10100536:	e788           	lsll #3,%d0
10100538:	41f9 1010 1f40 	lea 10101f40 <g_queue_slots>,%a0
1010053e:	42b0 0800      	clrl %a0@(00000000,%d0:l)
10100542:	4280           	clrl %d0
10100544:	102e fff9      	moveb %fp@(-7),%d0
10100548:	e988           	lsll #4,%d0
1010054a:	2240           	moveal %d0,%a1
1010054c:	d3fc 1010 1f70 	addal #269492080,%a1
10100552:	4280           	clrl %d0
10100554:	102e fff9      	moveb %fp@(-7),%d0
10100558:	e588           	lsll #2,%d0
1010055a:	5280           	addql #1,%d0
1010055c:	e588           	lsll #2,%d0
1010055e:	41f9 1010 1f70 	lea 10101f70 <g_proc_table>,%a0
10100564:	1030 0800      	moveb %a0@(00000000,%d0:l),%d0
10100568:	1000           	moveb %d0,%d0
1010056a:	0280 0000 00ff 	andil #255,%d0
10100570:	2200           	movel %d0,%d1
10100572:	d281           	addl %d1,%d1
10100574:	2001           	movel %d1,%d0
10100576:	e588           	lsll #2,%d0
10100578:	d081           	addl %d1,%d0
1010057a:	0680 1010 2050 	addil #269492304,%d0
10100580:	2f09           	movel %a1,%sp@-
10100582:	4879 1010 1f40 	pea 10101f40 <g_queue_slots>
10100588:	2f00           	movel %d0,%sp@-
1010058a:	4eba 02b0      	jsr %pc@(1010083c <push>)
1010058e:	dffc 0000 000c 	addal #12,%sp
10100594:	4280           	clrl %d0
10100596:	102e fff9      	moveb %fp@(-7),%d0
1010059a:	e988           	lsll #4,%d0
1010059c:	41f9 1010 1f76 	lea 10101f76 <g_proc_table+0x6>,%a0
101005a2:	2030 0800      	movel %a0@(00000000,%d0:l),%d0
101005a6:	2d40 fffa      	movel %d0,%fp@(-6)
101005aa:	4280           	clrl %d0
101005ac:	102e fff9      	moveb %fp@(-7),%d0
101005b0:	e988           	lsll #4,%d0
101005b2:	41f9 1010 1f7a 	lea 10101f7a <g_proc_table+0xa>,%a0
101005b8:	2030 0800      	movel %a0@(00000000,%d0:l),%d0
101005bc:	206e fffa      	moveal %fp@(-6),%a0
101005c0:	2080           	movel %d0,%a0@
101005c2:	59ae fffa      	subql #4,%fp@(-6)
101005c6:	206e fffa      	moveal %fp@(-6),%a0
101005ca:	20bc 4000 0000 	movel #1073741824,%a0@
101005d0:	4200           	clrb %d0
101005d2:	1d40 ffff      	moveb %d0,%fp@(-1)
101005d6:	4201           	clrb %d1
101005d8:	1d41 ffff      	moveb %d1,%fp@(-1)
101005dc:	6014           	bras 101005f2 <sys_init+0x2f6>
101005de:	59ae fffa      	subql #4,%fp@(-6)
101005e2:	206e fffa      	moveal %fp@(-6),%a0
101005e6:	4290           	clrl %a0@
101005e8:	102e ffff      	moveb %fp@(-1),%d0
101005ec:	5280           	addql #1,%d0
101005ee:	1d40 ffff      	moveb %d0,%fp@(-1)
101005f2:	4280           	clrl %d0
101005f4:	102e ffff      	moveb %fp@(-1),%d0
101005f8:	720e           	moveq #14,%d1
101005fa:	b280           	cmpl %d0,%d1
101005fc:	64e0           	bccs 101005de <sys_init+0x2e2>
101005fe:	4280           	clrl %d0
10100600:	102e fff9      	moveb %fp@(-7),%d0
10100604:	222e fffa      	movel %fp@(-6),%d1
10100608:	e988           	lsll #4,%d0
1010060a:	41f9 1010 1f76 	lea 10101f76 <g_proc_table+0x6>,%a0
10100610:	2181 0800      	movel %d1,%a0@(00000000,%d0:l)
10100614:	102e fff9      	moveb %fp@(-7),%d0
10100618:	5280           	addql #1,%d0
1010061a:	1d40 fff9      	moveb %d0,%fp@(-7)
1010061e:	4280           	clrl %d0
10100620:	102e fff9      	moveb %fp@(-7),%d0
10100624:	7205           	moveq #5,%d1
10100626:	b280           	cmpl %d0,%d1
10100628:	6400 fdfa      	bccw 10100424 <sys_init+0x128>
1010062c:	23cf 1010 0f2c 	movel %sp,10100f2c <g_asmBridge>
10100632:	2039 1010 0f2c 	movel 10100f2c <g_asmBridge>,%d0
10100638:	23c0 1010 0f28 	movel %d0,10100f28 <_edata>
1010063e:	4eba 0030      	jsr %pc@(10100670 <scheduler>)
10100642:	2e79 1010 0f2c 	moveal 10100f2c <g_asmBridge>,%sp
10100648:	2c5f           	moveal %sp@+,%fp
1010064a:	2a5f           	moveal %sp@+,%a5
1010064c:	285f           	moveal %sp@+,%a4
1010064e:	265f           	moveal %sp@+,%a3
10100650:	245f           	moveal %sp@+,%a2
10100652:	225f           	moveal %sp@+,%a1
10100654:	205f           	moveal %sp@+,%a0
10100656:	2e1f           	movel %sp@+,%d7
10100658:	2c1f           	movel %sp@+,%d6
1010065a:	2a1f           	movel %sp@+,%d5
1010065c:	281f           	movel %sp@+,%d4
1010065e:	261f           	movel %sp@+,%d3
10100660:	241f           	movel %sp@+,%d2
10100662:	221f           	movel %sp@+,%d1
10100664:	201f           	movel %sp@+,%d0
10100666:	4e73           	rte
10100668:	242e fff4      	movel %fp@(-12),%d2
1010066c:	4e5e           	unlk %fp
1010066e:	4e75           	rts

10100670 <scheduler>:
10100670:	4e56 fffc      	linkw %fp,#-4
10100674:	1039 1010 0f20 	moveb 10100f20 <g_first_run>,%d0
1010067a:	4a00           	tstb %d0
1010067c:	6670           	bnes 101006ee <scheduler+0x7e>
1010067e:	23cf 1010 0f2c 	movel %sp,10100f2c <g_asmBridge>
10100684:	2079 1010 2102 	moveal 10102102 <g_current_process>,%a0
1010068a:	2039 1010 0f2c 	movel 10100f2c <g_asmBridge>,%d0
10100690:	0680 0000 000c 	addil #12,%d0
10100696:	2140 0006      	movel %d0,%a0@(6)
1010069a:	2079 1010 2102 	moveal 10102102 <g_current_process>,%a0
101006a0:	7001           	moveq #1,%d0
101006a2:	1140 0005      	moveb %d0,%a0@(5)
101006a6:	2079 1010 2102 	moveal 10102102 <g_current_process>,%a0
101006ac:	2010           	movel %a0@,%d0
101006ae:	4a80           	tstl %d0
101006b0:	673c           	beqs 101006ee <scheduler+0x7e>
101006b2:	2279 1010 2102 	moveal 10102102 <g_current_process>,%a1
101006b8:	2079 1010 2102 	moveal 10102102 <g_current_process>,%a0
101006be:	1028 0004      	moveb %a0@(4),%d0
101006c2:	1000           	moveb %d0,%d0
101006c4:	0280 0000 00ff 	andil #255,%d0
101006ca:	2200           	movel %d0,%d1
101006cc:	d281           	addl %d1,%d1
101006ce:	2001           	movel %d1,%d0
101006d0:	e588           	lsll #2,%d0
101006d2:	d081           	addl %d1,%d0
101006d4:	0680 1010 2050 	addil #269492304,%d0
101006da:	2f09           	movel %a1,%sp@-
101006dc:	4879 1010 1f40 	pea 10101f40 <g_queue_slots>
101006e2:	2f00           	movel %d0,%sp@-
101006e4:	4eba 0156      	jsr %pc@(1010083c <push>)
101006e8:	dffc 0000 000c 	addal #12,%sp
101006ee:	4201           	clrb %d1
101006f0:	13c1 1010 0f20 	moveb %d1,10100f20 <g_first_run>
101006f6:	4200           	clrb %d0
101006f8:	1d40 ffff      	moveb %d0,%fp@(-1)
101006fc:	6040           	bras 1010073e <scheduler+0xce>
101006fe:	4280           	clrl %d0
10100700:	102e ffff      	moveb %fp@(-1),%d0
10100704:	2200           	movel %d0,%d1
10100706:	d281           	addl %d1,%d1
10100708:	2001           	movel %d1,%d0
1010070a:	e588           	lsll #2,%d0
1010070c:	d081           	addl %d1,%d0
1010070e:	0680 1010 2050 	addil #269492304,%d0
10100714:	4879 1010 2102 	pea 10102102 <g_current_process>
1010071a:	4879 1010 1f40 	pea 10101f40 <g_queue_slots>
10100720:	2f00           	movel %d0,%sp@-
10100722:	4eba 00aa      	jsr %pc@(101007ce <pop>)
10100726:	dffc 0000 000c 	addal #12,%sp
1010072c:	49c0           	extbl %d0
1010072e:	72ff           	moveq #-1,%d1
10100730:	b280           	cmpl %d0,%d1
10100732:	6616           	bnes 1010074a <scheduler+0xda>
10100734:	102e ffff      	moveb %fp@(-1),%d0
10100738:	5280           	addql #1,%d0
1010073a:	1d40 ffff      	moveb %d0,%fp@(-1)
1010073e:	4280           	clrl %d0
10100740:	102e ffff      	moveb %fp@(-1),%d0
10100744:	7204           	moveq #4,%d1
10100746:	b280           	cmpl %d0,%d1
10100748:	64b4           	bccs 101006fe <scheduler+0x8e>
1010074a:	2079 1010 2102 	moveal 10102102 <g_current_process>,%a0
10100750:	7002           	moveq #2,%d0
10100752:	1140 0005      	moveb %d0,%a0@(5)
10100756:	2079 1010 2102 	moveal 10102102 <g_current_process>,%a0
1010075c:	2028 0006      	movel %a0@(6),%d0
10100760:	23c0 1010 0f2c 	movel %d0,10100f2c <g_asmBridge>
10100766:	4e5e           	unlk %fp
10100768:	4e75           	rts

1010076a <release_processor>:
1010076a:	4e56 fffc      	linkw %fp,#-4
1010076e:	42ae fffc      	clrl %fp@(-4)
10100772:	23cf 1010 0f2c 	movel %sp,10100f2c <g_asmBridge>
10100778:	2039 1010 0f2c 	movel 10100f2c <g_asmBridge>,%d0
1010077e:	5080           	addql #8,%d0
10100780:	2d40 fffc      	movel %d0,%fp@(-4)
10100784:	2039 1010 0f2c 	movel 10100f2c <g_asmBridge>,%d0
1010078a:	0680 0000 000c 	addil #12,%d0
10100790:	23c0 1010 0f2c 	movel %d0,10100f2c <g_asmBridge>
10100796:	2e79 1010 0f2c 	moveal 10100f2c <g_asmBridge>,%sp
1010079c:	206e fffc      	moveal %fp@(-4),%a0
101007a0:	2010           	movel %a0@,%d0
101007a2:	23c0 1010 0f2c 	movel %d0,10100f2c <g_asmBridge>
101007a8:	2c56           	moveal %fp@,%fp
101007aa:	4e40           	trap #0
101007ac:	4200           	clrb %d0
101007ae:	4e5e           	unlk %fp
101007b0:	4e75           	rts

101007b2 <send_message>:
101007b2:	4e56 fffc      	linkw %fp,#-4
101007b6:	202e 0008      	movel %fp@(8),%d0
101007ba:	1d40 fffe      	moveb %d0,%fp@(-2)
101007be:	4200           	clrb %d0
101007c0:	4e5e           	unlk %fp
101007c2:	4e75           	rts

101007c4 <receive_message>:
101007c4:	4e56 0000      	linkw %fp,#0
101007c8:	4280           	clrl %d0
101007ca:	4e5e           	unlk %fp
101007cc:	4e75           	rts

101007ce <pop>:
101007ce:	4e56 fffc      	linkw %fp,#-4
101007d2:	206e 0008      	moveal %fp@(8),%a0
101007d6:	2010           	movel %a0@,%d0
101007d8:	4a80           	tstl %d0
101007da:	6608           	bnes 101007e4 <pop+0x16>
101007dc:	50c0           	st %d0
101007de:	1d40 ffff      	moveb %d0,%fp@(-1)
101007e2:	6050           	bras 10100834 <pop+0x66>
101007e4:	206e 0008      	moveal %fp@(8),%a0
101007e8:	2050           	moveal %a0@,%a0
101007ea:	2028 0004      	movel %a0@(4),%d0
101007ee:	206e 0010      	moveal %fp@(16),%a0
101007f2:	2080           	movel %d0,%a0@
101007f4:	206e 0008      	moveal %fp@(8),%a0
101007f8:	2050           	moveal %a0@,%a0
101007fa:	42a8 0004      	clrl %a0@(4)
101007fe:	206e 0008      	moveal %fp@(8),%a0
10100802:	2210           	movel %a0@,%d1
10100804:	206e 0008      	moveal %fp@(8),%a0
10100808:	2028 0004      	movel %a0@(4),%d0
1010080c:	b081           	cmpl %d1,%d0
1010080e:	6610           	bnes 10100820 <pop+0x52>
10100810:	206e 0008      	moveal %fp@(8),%a0
10100814:	4290           	clrl %a0@
10100816:	206e 0008      	moveal %fp@(8),%a0
1010081a:	42a8 0004      	clrl %a0@(4)
1010081e:	600e           	bras 1010082e <pop+0x60>
10100820:	206e 0008      	moveal %fp@(8),%a0
10100824:	2050           	moveal %a0@,%a0
10100826:	2010           	movel %a0@,%d0
10100828:	206e 0008      	moveal %fp@(8),%a0
1010082c:	2080           	movel %d0,%a0@
1010082e:	4200           	clrb %d0
10100830:	1d40 ffff      	moveb %d0,%fp@(-1)
10100834:	102e ffff      	moveb %fp@(-1),%d0
10100838:	4e5e           	unlk %fp
1010083a:	4e75           	rts

1010083c <push>:
1010083c:	4e56 fff8      	linkw %fp,#-8
10100840:	4200           	clrb %d0
10100842:	1d40 ffff      	moveb %d0,%fp@(-1)
10100846:	4200           	clrb %d0
10100848:	1d40 ffff      	moveb %d0,%fp@(-1)
1010084c:	6020           	bras 1010086e <push+0x32>
1010084e:	4280           	clrl %d0
10100850:	102e ffff      	moveb %fp@(-1),%d0
10100854:	e788           	lsll #3,%d0
10100856:	206e 000c      	moveal %fp@(12),%a0
1010085a:	d1c0           	addal %d0,%a0
1010085c:	2028 0004      	movel %a0@(4),%d0
10100860:	4a80           	tstl %d0
10100862:	6720           	beqs 10100884 <push+0x48>
10100864:	102e ffff      	moveb %fp@(-1),%d0
10100868:	5280           	addql #1,%d0
1010086a:	1d40 ffff      	moveb %d0,%fp@(-1)
1010086e:	206e 0008      	moveal %fp@(8),%a0
10100872:	1028 0008      	moveb %a0@(8),%d0
10100876:	4281           	clrl %d1
10100878:	1200           	moveb %d0,%d1
1010087a:	4280           	clrl %d0
1010087c:	102e ffff      	moveb %fp@(-1),%d0
10100880:	b081           	cmpl %d1,%d0
10100882:	65ca           	bcss 1010084e <push+0x12>
10100884:	206e 0008      	moveal %fp@(8),%a0
10100888:	1028 0008      	moveb %a0@(8),%d0
1010088c:	4281           	clrl %d1
1010088e:	1200           	moveb %d0,%d1
10100890:	4280           	clrl %d0
10100892:	102e ffff      	moveb %fp@(-1),%d0
10100896:	b081           	cmpl %d1,%d0
10100898:	6608           	bnes 101008a2 <push+0x66>
1010089a:	50c0           	st %d0
1010089c:	1d40 fffb      	moveb %d0,%fp@(-5)
101008a0:	6064           	bras 10100906 <push+0xca>
101008a2:	4280           	clrl %d0
101008a4:	102e ffff      	moveb %fp@(-1),%d0
101008a8:	e788           	lsll #3,%d0
101008aa:	206e 000c      	moveal %fp@(12),%a0
101008ae:	d1c0           	addal %d0,%a0
101008b0:	216e 0010 0004 	movel %fp@(16),%a0@(4)
101008b6:	206e 0008      	moveal %fp@(8),%a0
101008ba:	2028 0004      	movel %a0@(4),%d0
101008be:	4a80           	tstl %d0
101008c0:	6614           	bnes 101008d6 <push+0x9a>
101008c2:	4280           	clrl %d0
101008c4:	102e ffff      	moveb %fp@(-1),%d0
101008c8:	e788           	lsll #3,%d0
101008ca:	d0ae 000c      	addl %fp@(12),%d0
101008ce:	206e 0008      	moveal %fp@(8),%a0
101008d2:	2080           	movel %d0,%a0@
101008d4:	6016           	bras 101008ec <push+0xb0>
101008d6:	206e 0008      	moveal %fp@(8),%a0
101008da:	2068 0004      	moveal %a0@(4),%a0
101008de:	4280           	clrl %d0
101008e0:	102e ffff      	moveb %fp@(-1),%d0
101008e4:	e788           	lsll #3,%d0
101008e6:	d0ae 000c      	addl %fp@(12),%d0
101008ea:	2080           	movel %d0,%a0@
101008ec:	4280           	clrl %d0
101008ee:	102e ffff      	moveb %fp@(-1),%d0
101008f2:	e788           	lsll #3,%d0
101008f4:	d0ae 000c      	addl %fp@(12),%d0
101008f8:	206e 0008      	moveal %fp@(8),%a0
101008fc:	2140 0004      	movel %d0,%a0@(4)
10100900:	4200           	clrb %d0
10100902:	1d40 fffb      	moveb %d0,%fp@(-5)
10100906:	102e fffb      	moveb %fp@(-5),%d0
1010090a:	4e5e           	unlk %fp
1010090c:	4e75           	rts

1010090e <set_process_priority>:
1010090e:	4e56 fff8      	linkw %fp,#-8
10100912:	202e 0008      	movel %fp@(8),%d0
10100916:	222e 000c      	movel %fp@(12),%d1
1010091a:	1d40 fffa      	moveb %d0,%fp@(-6)
1010091e:	1d41 fff8      	moveb %d1,%fp@(-8)
10100922:	4200           	clrb %d0
10100924:	1d40 ffff      	moveb %d0,%fp@(-1)
10100928:	2f00           	movel %d0,%sp@-
1010092a:	2f01           	movel %d1,%sp@-
1010092c:	2f02           	movel %d2,%sp@-
1010092e:	2f03           	movel %d3,%sp@-
10100930:	2f04           	movel %d4,%sp@-
10100932:	2f05           	movel %d5,%sp@-
10100934:	2f06           	movel %d6,%sp@-
10100936:	2f07           	movel %d7,%sp@-
10100938:	2f08           	movel %a0,%sp@-
1010093a:	2f09           	movel %a1,%sp@-
1010093c:	2f0a           	movel %a2,%sp@-
1010093e:	2f0b           	movel %a3,%sp@-
10100940:	2f0c           	movel %a4,%sp@-
10100942:	2f0d           	movel %a5,%sp@-
10100944:	2f0e           	movel %fp,%sp@-
10100946:	4280           	clrl %d0
10100948:	102e fffa      	moveb %fp@(-6),%d0
1010094c:	23c0 1010 0f2c 	movel %d0,10100f2c <g_asmBridge>
10100952:	2439 1010 0f2c 	movel 10100f2c <g_asmBridge>,%d2
10100958:	4280           	clrl %d0
1010095a:	102e fff8      	moveb %fp@(-8),%d0
1010095e:	23c0 1010 0f2c 	movel %d0,10100f2c <g_asmBridge>
10100964:	2639 1010 0f2c 	movel 10100f2c <g_asmBridge>,%d3
1010096a:	4e41           	trap #1
1010096c:	23c1 1010 0f2c 	movel %d1,10100f2c <g_asmBridge>
10100972:	2039 1010 0f2c 	movel 10100f2c <g_asmBridge>,%d0
10100978:	7218           	moveq #24,%d1
1010097a:	e3a8           	lsll %d1,%d0
1010097c:	1d40 ffff      	moveb %d0,%fp@(-1)
10100980:	2c5f           	moveal %sp@+,%fp
10100982:	2a5f           	moveal %sp@+,%a5
10100984:	285f           	moveal %sp@+,%a4
10100986:	265f           	moveal %sp@+,%a3
10100988:	245f           	moveal %sp@+,%a2
1010098a:	225f           	moveal %sp@+,%a1
1010098c:	205f           	moveal %sp@+,%a0
1010098e:	2e1f           	movel %sp@+,%d7
10100990:	2c1f           	movel %sp@+,%d6
10100992:	2a1f           	movel %sp@+,%d5
10100994:	281f           	movel %sp@+,%d4
10100996:	261f           	movel %sp@+,%d3
10100998:	241f           	movel %sp@+,%d2
1010099a:	221f           	movel %sp@+,%d1
1010099c:	201f           	movel %sp@+,%d0
1010099e:	102e ffff      	moveb %fp@(-1),%d0
101009a2:	4e5e           	unlk %fp
101009a4:	4e75           	rts

101009a6 <set_process_priority_trap_handler>:
101009a6:	4e56 ffec      	linkw %fp,#-20
101009aa:	4200           	clrb %d0
101009ac:	1d40 fff4      	moveb %d0,%fp@(-12)
101009b0:	4201           	clrb %d1
101009b2:	1d41 fff5      	moveb %d1,%fp@(-11)
101009b6:	23c3 1010 0f2c 	movel %d3,10100f2c <g_asmBridge>
101009bc:	2039 1010 0f2c 	movel 10100f2c <g_asmBridge>,%d0
101009c2:	1d40 fff4      	moveb %d0,%fp@(-12)
101009c6:	23c2 1010 0f2c 	movel %d2,10100f2c <g_asmBridge>
101009cc:	2039 1010 0f2c 	movel 10100f2c <g_asmBridge>,%d0
101009d2:	1d40 fff5      	moveb %d0,%fp@(-11)
101009d6:	4280           	clrl %d0
101009d8:	102e fff4      	moveb %fp@(-12),%d0
101009dc:	2f00           	movel %d0,%sp@-
101009de:	4eb9 1010 0118 	jsr 10100118 <printHexAddress>
101009e4:	588f           	addql #4,%sp
101009e6:	4280           	clrl %d0
101009e8:	102e fff5      	moveb %fp@(-11),%d0
101009ec:	2f00           	movel %d0,%sp@-
101009ee:	4eb9 1010 0118 	jsr 10100118 <printHexAddress>
101009f4:	588f           	addql #4,%sp
101009f6:	4280           	clrl %d0
101009f8:	102e fff4      	moveb %fp@(-12),%d0
101009fc:	7203           	moveq #3,%d1
101009fe:	b280           	cmpl %d0,%d1
10100a00:	6412           	bccs 10100a14 <set_process_priority_trap_handler+0x6e>
10100a02:	70ff           	moveq #-1,%d0
10100a04:	23c0 1010 0f2c 	movel %d0,10100f2c <g_asmBridge>
10100a0a:	2439 1010 0f2c 	movel 10100f2c <g_asmBridge>,%d2
10100a10:	6000 02fe      	braw 10100d10 <set_process_priority_trap_handler+0x36a>
10100a14:	4201           	clrb %d1
10100a16:	1d41 fff6      	moveb %d1,%fp@(-10)
10100a1a:	4200           	clrb %d0
10100a1c:	1d40 fff7      	moveb %d0,%fp@(-9)
10100a20:	4201           	clrb %d1
10100a22:	1d41 fff6      	moveb %d1,%fp@(-10)
10100a26:	6042           	bras 10100a6a <set_process_priority_trap_handler+0xc4>
10100a28:	4280           	clrl %d0
10100a2a:	102e fff6      	moveb %fp@(-10),%d0
10100a2e:	e988           	lsll #4,%d0
10100a30:	41f9 1010 1f70 	lea 10101f70 <g_proc_table>,%a0
10100a36:	2230 0800      	movel %a0@(00000000,%d0:l),%d1
10100a3a:	4280           	clrl %d0
10100a3c:	102e fff5      	moveb %fp@(-11),%d0
10100a40:	b081           	cmpl %d1,%d0
10100a42:	661c           	bnes 10100a60 <set_process_priority_trap_handler+0xba>
10100a44:	4280           	clrl %d0
10100a46:	102e fff6      	moveb %fp@(-10),%d0
10100a4a:	e588           	lsll #2,%d0
10100a4c:	5280           	addql #1,%d0
10100a4e:	e588           	lsll #2,%d0
10100a50:	41f9 1010 1f70 	lea 10101f70 <g_proc_table>,%a0
10100a56:	43f0 0800      	lea %a0@(00000000,%d0:l),%a1
10100a5a:	1d51 fff7      	moveb %a1@,%fp@(-9)
10100a5e:	6016           	bras 10100a76 <set_process_priority_trap_handler+0xd0>
10100a60:	102e fff6      	moveb %fp@(-10),%d0
10100a64:	5280           	addql #1,%d0
10100a66:	1d40 fff6      	moveb %d0,%fp@(-10)
10100a6a:	4280           	clrl %d0
10100a6c:	102e fff6      	moveb %fp@(-10),%d0
10100a70:	7205           	moveq #5,%d1
10100a72:	b280           	cmpl %d0,%d1
10100a74:	64b2           	bccs 10100a28 <set_process_priority_trap_handler+0x82>
10100a76:	4280           	clrl %d0
10100a78:	102e fff6      	moveb %fp@(-10),%d0
10100a7c:	7206           	moveq #6,%d1
10100a7e:	b280           	cmpl %d0,%d1
10100a80:	6612           	bnes 10100a94 <set_process_priority_trap_handler+0xee>
10100a82:	70ff           	moveq #-1,%d0
10100a84:	23c0 1010 0f2c 	movel %d0,10100f2c <g_asmBridge>
10100a8a:	2439 1010 0f2c 	movel 10100f2c <g_asmBridge>,%d2
10100a90:	6000 027e      	braw 10100d10 <set_process_priority_trap_handler+0x36a>
10100a94:	4281           	clrl %d1
10100a96:	122e fff7      	moveb %fp@(-9),%d1
10100a9a:	4280           	clrl %d0
10100a9c:	102e fff4      	moveb %fp@(-12),%d0
10100aa0:	b081           	cmpl %d1,%d0
10100aa2:	6610           	bnes 10100ab4 <set_process_priority_trap_handler+0x10e>
10100aa4:	42b9 1010 0f2c 	clrl 10100f2c <g_asmBridge>
10100aaa:	2439 1010 0f2c 	movel 10100f2c <g_asmBridge>,%d2
10100ab0:	6000 025e      	braw 10100d10 <set_process_priority_trap_handler+0x36a>
10100ab4:	2079 1010 2102 	moveal 10102102 <g_current_process>,%a0
10100aba:	2210           	movel %a0@,%d1
10100abc:	4280           	clrl %d0
10100abe:	102e fff5      	moveb %fp@(-11),%d0
10100ac2:	b081           	cmpl %d1,%d0
10100ac4:	662a           	bnes 10100af0 <set_process_priority_trap_handler+0x14a>
10100ac6:	4280           	clrl %d0
10100ac8:	102e fff6      	moveb %fp@(-10),%d0
10100acc:	e588           	lsll #2,%d0
10100ace:	5280           	addql #1,%d0
10100ad0:	e588           	lsll #2,%d0
10100ad2:	41f9 1010 1f70 	lea 10101f70 <g_proc_table>,%a0
10100ad8:	43ee fff4      	lea %fp@(-12),%a1
10100adc:	1191 0800      	moveb %a1@,%a0@(00000000,%d0:l)
10100ae0:	42b9 1010 0f2c 	clrl 10100f2c <g_asmBridge>
10100ae6:	2439 1010 0f2c 	movel 10100f2c <g_asmBridge>,%d2
10100aec:	6000 0222      	braw 10100d10 <set_process_priority_trap_handler+0x36a>
10100af0:	4280           	clrl %d0
10100af2:	102e fff7      	moveb %fp@(-9),%d0
10100af6:	d080           	addl %d0,%d0
10100af8:	2200           	movel %d0,%d1
10100afa:	e589           	lsll #2,%d1
10100afc:	d081           	addl %d1,%d0
10100afe:	41f9 1010 2050 	lea 10102050 <g_priority_queues>,%a0
10100b04:	43f0 0800      	lea %a0@(00000000,%d0:l),%a1
10100b08:	2d51 fff8      	movel %a1@,%fp@(-8)
10100b0c:	4280           	clrl %d0
10100b0e:	102e fff7      	moveb %fp@(-9),%d0
10100b12:	d080           	addl %d0,%d0
10100b14:	2200           	movel %d0,%d1
10100b16:	e589           	lsll #2,%d1
10100b18:	d081           	addl %d1,%d0
10100b1a:	41f9 1010 2050 	lea 10102050 <g_priority_queues>,%a0
10100b20:	43f0 0800      	lea %a0@(00000000,%d0:l),%a1
10100b24:	2d51 fffc      	movel %a1@,%fp@(-4)
10100b28:	4280           	clrl %d0
10100b2a:	102e fff7      	moveb %fp@(-9),%d0
10100b2e:	d080           	addl %d0,%d0
10100b30:	2200           	movel %d0,%d1
10100b32:	e589           	lsll #2,%d1
10100b34:	d081           	addl %d1,%d0
10100b36:	41f9 1010 2050 	lea 10102050 <g_priority_queues>,%a0
10100b3c:	2030 0800      	movel %a0@(00000000,%d0:l),%d0
10100b40:	4a80           	tstl %d0
10100b42:	6700 016c      	beqw 10100cb0 <set_process_priority_trap_handler+0x30a>
10100b46:	4280           	clrl %d0
10100b48:	102e fff7      	moveb %fp@(-9),%d0
10100b4c:	d080           	addl %d0,%d0
10100b4e:	2200           	movel %d0,%d1
10100b50:	e589           	lsll #2,%d1
10100b52:	d081           	addl %d1,%d0
10100b54:	41f9 1010 2050 	lea 10102050 <g_priority_queues>,%a0
10100b5a:	2070 0800      	moveal %a0@(00000000,%d0:l),%a0
10100b5e:	2228 0004      	movel %a0@(4),%d1
10100b62:	4280           	clrl %d0
10100b64:	102e fff6      	moveb %fp@(-10),%d0
10100b68:	e988           	lsll #4,%d0
10100b6a:	0680 1010 1f70 	addil #269492080,%d0
10100b70:	b081           	cmpl %d1,%d0
10100b72:	6638           	bnes 10100bac <set_process_priority_trap_handler+0x206>
10100b74:	4280           	clrl %d0
10100b76:	102e fff7      	moveb %fp@(-9),%d0
10100b7a:	2200           	movel %d0,%d1
10100b7c:	d281           	addl %d1,%d1
10100b7e:	2001           	movel %d1,%d0
10100b80:	e588           	lsll #2,%d0
10100b82:	d081           	addl %d1,%d0
10100b84:	2200           	movel %d0,%d1
10100b86:	0681 1010 2050 	addil #269492304,%d1
10100b8c:	200e           	movel %fp,%d0
10100b8e:	0680 ffff fff0 	addil #-16,%d0
10100b94:	2f00           	movel %d0,%sp@-
10100b96:	4879 1010 1f40 	pea 10101f40 <g_queue_slots>
10100b9c:	2f01           	movel %d1,%sp@-
10100b9e:	4eba fc2e      	jsr %pc@(101007ce <pop>)
10100ba2:	dffc 0000 000c 	addal #12,%sp
10100ba8:	6000 0106      	braw 10100cb0 <set_process_priority_trap_handler+0x30a>
10100bac:	4280           	clrl %d0
10100bae:	102e fff7      	moveb %fp@(-9),%d0
10100bb2:	d080           	addl %d0,%d0
10100bb4:	2200           	movel %d0,%d1
10100bb6:	e589           	lsll #2,%d1
10100bb8:	d081           	addl %d1,%d0
10100bba:	41f9 1010 2050 	lea 10102050 <g_priority_queues>,%a0
10100bc0:	2270 0800      	moveal %a0@(00000000,%d0:l),%a1
10100bc4:	4280           	clrl %d0
10100bc6:	102e fff7      	moveb %fp@(-9),%d0
10100bca:	d080           	addl %d0,%d0
10100bcc:	2200           	movel %d0,%d1
10100bce:	e589           	lsll #2,%d1
10100bd0:	d081           	addl %d1,%d0
10100bd2:	41f9 1010 2054 	lea 10102054 <g_priority_queues+0x4>,%a0
10100bd8:	2030 0800      	movel %a0@(00000000,%d0:l),%d0
10100bdc:	b089           	cmpl %a1,%d0
10100bde:	6638           	bnes 10100c18 <set_process_priority_trap_handler+0x272>
10100be0:	4280           	clrl %d0
10100be2:	102e fff7      	moveb %fp@(-9),%d0
10100be6:	2200           	movel %d0,%d1
10100be8:	d281           	addl %d1,%d1
10100bea:	2001           	movel %d1,%d0
10100bec:	e588           	lsll #2,%d0
10100bee:	d081           	addl %d1,%d0
10100bf0:	2200           	movel %d0,%d1
10100bf2:	0681 1010 2050 	addil #269492304,%d1
10100bf8:	200e           	movel %fp,%d0
10100bfa:	0680 ffff ffec 	addil #-20,%d0
10100c00:	2f00           	movel %d0,%sp@-
10100c02:	4879 1010 1f40 	pea 10101f40 <g_queue_slots>
10100c08:	2f01           	movel %d1,%sp@-
10100c0a:	4eba fbc2      	jsr %pc@(101007ce <pop>)
10100c0e:	dffc 0000 000c 	addal #12,%sp
10100c14:	6000 009a      	braw 10100cb0 <set_process_priority_trap_handler+0x30a>
10100c18:	206e fff8      	moveal %fp@(-8),%a0
10100c1c:	2d50 fff8      	movel %a0@,%fp@(-8)
10100c20:	6038           	bras 10100c5a <set_process_priority_trap_handler+0x2b4>
10100c22:	206e fff8      	moveal %fp@(-8),%a0
10100c26:	2068 0004      	moveal %a0@(4),%a0
10100c2a:	2210           	movel %a0@,%d1
10100c2c:	4280           	clrl %d0
10100c2e:	102e fff5      	moveb %fp@(-11),%d0
10100c32:	b081           	cmpl %d1,%d0
10100c34:	6616           	bnes 10100c4c <set_process_priority_trap_handler+0x2a6>
10100c36:	206e fff8      	moveal %fp@(-8),%a0
10100c3a:	2010           	movel %a0@,%d0
10100c3c:	206e fffc      	moveal %fp@(-4),%a0
10100c40:	2080           	movel %d0,%a0@
10100c42:	206e fff8      	moveal %fp@(-8),%a0
10100c46:	42a8 0004      	clrl %a0@(4)
10100c4a:	602c           	bras 10100c78 <set_process_priority_trap_handler+0x2d2>
10100c4c:	2d6e fff8 fffc 	movel %fp@(-8),%fp@(-4)
10100c52:	206e fff8      	moveal %fp@(-8),%a0
10100c56:	2d50 fff8      	movel %a0@,%fp@(-8)
10100c5a:	4280           	clrl %d0
10100c5c:	102e fff7      	moveb %fp@(-9),%d0
10100c60:	d080           	addl %d0,%d0
10100c62:	2200           	movel %d0,%d1
10100c64:	e589           	lsll #2,%d1
10100c66:	d081           	addl %d1,%d0
10100c68:	41f9 1010 2054 	lea 10102054 <g_priority_queues+0x4>,%a0
10100c6e:	2030 0800      	movel %a0@(00000000,%d0:l),%d0
10100c72:	b0ae fff8      	cmpl %fp@(-8),%d0
10100c76:	66aa           	bnes 10100c22 <set_process_priority_trap_handler+0x27c>
10100c78:	206e fff8      	moveal %fp@(-8),%a0
10100c7c:	2068 0004      	moveal %a0@(4),%a0
10100c80:	2210           	movel %a0@,%d1
10100c82:	4280           	clrl %d0
10100c84:	102e fff5      	moveb %fp@(-11),%d0
10100c88:	b081           	cmpl %d1,%d0
10100c8a:	6624           	bnes 10100cb0 <set_process_priority_trap_handler+0x30a>
10100c8c:	206e fff8      	moveal %fp@(-8),%a0
10100c90:	42a8 0004      	clrl %a0@(4)
10100c94:	4280           	clrl %d0
10100c96:	102e fff7      	moveb %fp@(-9),%d0
10100c9a:	d080           	addl %d0,%d0
10100c9c:	2200           	movel %d0,%d1
10100c9e:	e589           	lsll #2,%d1
10100ca0:	d081           	addl %d1,%d0
10100ca2:	41f9 1010 2054 	lea 10102054 <g_priority_queues+0x4>,%a0
10100ca8:	43ee fffc      	lea %fp@(-4),%a1
10100cac:	2191 0800      	movel %a1@,%a0@(00000000,%d0:l)
10100cb0:	4280           	clrl %d0
10100cb2:	102e fff6      	moveb %fp@(-10),%d0
10100cb6:	e588           	lsll #2,%d0
10100cb8:	5280           	addql #1,%d0
10100cba:	e588           	lsll #2,%d0
10100cbc:	41f9 1010 1f70 	lea 10101f70 <g_proc_table>,%a0
10100cc2:	43ee fff4      	lea %fp@(-12),%a1
10100cc6:	1191 0800      	moveb %a1@,%a0@(00000000,%d0:l)
10100cca:	4280           	clrl %d0
10100ccc:	102e fff6      	moveb %fp@(-10),%d0
10100cd0:	e988           	lsll #4,%d0
10100cd2:	2040           	moveal %d0,%a0
10100cd4:	d1fc 1010 1f70 	addal #269492080,%a0
10100cda:	4280           	clrl %d0
10100cdc:	102e fff4      	moveb %fp@(-12),%d0
10100ce0:	2200           	movel %d0,%d1
10100ce2:	d281           	addl %d1,%d1
10100ce4:	2001           	movel %d1,%d0
10100ce6:	e588           	lsll #2,%d0
10100ce8:	d081           	addl %d1,%d0
10100cea:	0680 1010 2050 	addil #269492304,%d0
10100cf0:	2f08           	movel %a0,%sp@-
10100cf2:	4879 1010 1f40 	pea 10101f40 <g_queue_slots>
10100cf8:	2f00           	movel %d0,%sp@-
10100cfa:	4eba fb40      	jsr %pc@(1010083c <push>)
10100cfe:	dffc 0000 000c 	addal #12,%sp
10100d04:	42b9 1010 0f2c 	clrl 10100f2c <g_asmBridge>
10100d0a:	2439 1010 0f2c 	movel 10100f2c <g_asmBridge>,%d2
10100d10:	4e5e           	unlk %fp
10100d12:	4e75           	rts

10100d14 <get_process_priority>:
10100d14:	4e56 fff8      	linkw %fp,#-8
10100d18:	202e 0008      	movel %fp@(8),%d0
10100d1c:	1d40 fffa      	moveb %d0,%fp@(-6)
10100d20:	4200           	clrb %d0
10100d22:	1d40 ffff      	moveb %d0,%fp@(-1)
10100d26:	4201           	clrb %d1
10100d28:	1d41 ffff      	moveb %d1,%fp@(-1)
10100d2c:	6042           	bras 10100d70 <get_process_priority+0x5c>
10100d2e:	4280           	clrl %d0
10100d30:	102e ffff      	moveb %fp@(-1),%d0
10100d34:	e988           	lsll #4,%d0
10100d36:	41f9 1010 1f70 	lea 10101f70 <g_proc_table>,%a0
10100d3c:	2230 0800      	movel %a0@(00000000,%d0:l),%d1
10100d40:	4280           	clrl %d0
10100d42:	102e fffa      	moveb %fp@(-6),%d0
10100d46:	b081           	cmpl %d1,%d0
10100d48:	661c           	bnes 10100d66 <get_process_priority+0x52>
10100d4a:	4280           	clrl %d0
10100d4c:	102e ffff      	moveb %fp@(-1),%d0
10100d50:	e588           	lsll #2,%d0
10100d52:	5280           	addql #1,%d0
10100d54:	e588           	lsll #2,%d0
10100d56:	41f9 1010 1f70 	lea 10101f70 <g_proc_table>,%a0
10100d5c:	1030 0800      	moveb %a0@(00000000,%d0:l),%d0
10100d60:	1d40 fff9      	moveb %d0,%fp@(-7)
10100d64:	601c           	bras 10100d82 <get_process_priority+0x6e>
10100d66:	102e ffff      	moveb %fp@(-1),%d0
10100d6a:	5280           	addql #1,%d0
10100d6c:	1d40 ffff      	moveb %d0,%fp@(-1)
10100d70:	4280           	clrl %d0
10100d72:	102e ffff      	moveb %fp@(-1),%d0
10100d76:	7205           	moveq #5,%d1
10100d78:	b280           	cmpl %d0,%d1
10100d7a:	64b2           	bccs 10100d2e <get_process_priority+0x1a>
10100d7c:	50c0           	st %d0
10100d7e:	1d40 fff9      	moveb %d0,%fp@(-7)
10100d82:	102e fff9      	moveb %fp@(-7),%d0
10100d86:	4e5e           	unlk %fp
10100d88:	4e75           	rts

10100d8a <request_memory_block>:
10100d8a:	4e56 fff8      	linkw %fp,#-8
10100d8e:	4200           	clrb %d0
10100d90:	1d40 ffff      	moveb %d0,%fp@(-1)
10100d94:	604c           	bras 10100de2 <request_memory_block+0x58>
10100d96:	4280           	clrl %d0
10100d98:	102e ffff      	moveb %fp@(-1),%d0
10100d9c:	e588           	lsll #2,%d0
10100d9e:	41f9 1010 2082 	lea 10102082 <gp_mem_pool_lookup>,%a0
10100da4:	2030 0800      	movel %a0@(00000000,%d0:l),%d0
10100da8:	4a80           	tstl %d0
10100daa:	662c           	bnes 10100dd8 <request_memory_block+0x4e>
10100dac:	4280           	clrl %d0
10100dae:	102e ffff      	moveb %fp@(-1),%d0
10100db2:	e588           	lsll #2,%d0
10100db4:	41f9 1010 2082 	lea 10102082 <gp_mem_pool_lookup>,%a0
10100dba:	7201           	moveq #1,%d1
10100dbc:	2181 0800      	movel %d1,%a0@(00000000,%d0:l)
10100dc0:	4280           	clrl %d0
10100dc2:	102e ffff      	moveb %fp@(-1),%d0
10100dc6:	e588           	lsll #2,%d0
10100dc8:	41f9 1010 1fd0 	lea 10101fd0 <gp_mem_pool_list>,%a0
10100dce:	2030 0800      	movel %a0@(00000000,%d0:l),%d0
10100dd2:	2d40 fff8      	movel %d0,%fp@(-8)
10100dd6:	601a           	bras 10100df2 <request_memory_block+0x68>
10100dd8:	102e ffff      	moveb %fp@(-1),%d0
10100ddc:	5280           	addql #1,%d0
10100dde:	1d40 ffff      	moveb %d0,%fp@(-1)
10100de2:	4280           	clrl %d0
10100de4:	102e ffff      	moveb %fp@(-1),%d0
10100de8:	721f           	moveq #31,%d1
10100dea:	b280           	cmpl %d0,%d1
10100dec:	64a8           	bccs 10100d96 <request_memory_block+0xc>
10100dee:	42ae fff8      	clrl %fp@(-8)
10100df2:	202e fff8      	movel %fp@(-8),%d0
10100df6:	4e5e           	unlk %fp
10100df8:	4e75           	rts

10100dfa <s_release_memory_block>:
10100dfa:	4e56 fff8      	linkw %fp,#-8
10100dfe:	4200           	clrb %d0
10100e00:	1d40 ffff      	moveb %d0,%fp@(-1)
10100e04:	6056           	bras 10100e5c <s_release_memory_block+0x62>
10100e06:	4280           	clrl %d0
10100e08:	102e ffff      	moveb %fp@(-1),%d0
10100e0c:	e588           	lsll #2,%d0
10100e0e:	41f9 1010 1fd0 	lea 10101fd0 <gp_mem_pool_list>,%a0
10100e14:	2230 0800      	movel %a0@(00000000,%d0:l),%d1
10100e18:	202e 0008      	movel %fp@(8),%d0
10100e1c:	b081           	cmpl %d1,%d0
10100e1e:	6632           	bnes 10100e52 <s_release_memory_block+0x58>
10100e20:	4280           	clrl %d0
10100e22:	102e ffff      	moveb %fp@(-1),%d0
10100e26:	e588           	lsll #2,%d0
10100e28:	41f9 1010 2082 	lea 10102082 <gp_mem_pool_lookup>,%a0
10100e2e:	2030 0800      	movel %a0@(00000000,%d0:l),%d0
10100e32:	7201           	moveq #1,%d1
10100e34:	b280           	cmpl %d0,%d1
10100e36:	661a           	bnes 10100e52 <s_release_memory_block+0x58>
10100e38:	4280           	clrl %d0
10100e3a:	102e ffff      	moveb %fp@(-1),%d0
10100e3e:	e588           	lsll #2,%d0
10100e40:	41f9 1010 2082 	lea 10102082 <gp_mem_pool_lookup>,%a0
10100e46:	42b0 0800      	clrl %a0@(00000000,%d0:l)
10100e4a:	4200           	clrb %d0
10100e4c:	1d40 fffb      	moveb %d0,%fp@(-5)
10100e50:	601c           	bras 10100e6e <s_release_memory_block+0x74>
10100e52:	102e ffff      	moveb %fp@(-1),%d0
10100e56:	5280           	addql #1,%d0
10100e58:	1d40 ffff      	moveb %d0,%fp@(-1)
10100e5c:	4280           	clrl %d0
10100e5e:	102e ffff      	moveb %fp@(-1),%d0
10100e62:	721f           	moveq #31,%d1
10100e64:	b280           	cmpl %d0,%d1
10100e66:	649e           	bccs 10100e06 <s_release_memory_block+0xc>
10100e68:	50c0           	st %d0
10100e6a:	1d40 fffb      	moveb %d0,%fp@(-5)
10100e6e:	102e fffb      	moveb %fp@(-5),%d0
10100e72:	4e5e           	unlk %fp
10100e74:	4e75           	rts
	...

10100e78 <__main>:
10100e78:	4e56 0000      	linkw %fp,#0
10100e7c:	4280           	clrl %d0
10100e7e:	4e5e           	unlk %fp
10100e80:	4e75           	rts

10100e82 <main>:
10100e82:	4e56 0000      	linkw %fp,#0
10100e86:	4eb9 1010 02fc 	jsr 101002fc <sys_init>
10100e8c:	4280           	clrl %d0
10100e8e:	4e5e           	unlk %fp
10100e90:	4e75           	rts
	...

10100e94 <__CTOR_LIST__>:
	...

10100e9c <__CTOR_END__>:
	...

10100ea4 <__DTOR_END__>:
10100ea4:	3078 006e      	moveaw 6e <__DYNAMIC+0x6e>,%a0
10100ea8:	756c           	072554
10100eaa:	6c0a           	bges 10100eb6 <process_init_table+0x8>
10100eac:	0d00           	btst %d6,%d0

10100eae <process_init_table>:
10100eae:	0000 0000 0401 0000 0400 1010 0240 0000     .............@..
10100ebe:	0000 0001 0201 0000 0400 1010 025c 0000     .............\..
10100ece:	0000 0002 0201 0000 0400 1010 0284 0000     ................
10100ede:	0000 0003 0201 0000 0400 1010 029c 0000     ................
10100eee:	0000 0004 0201 0000 0400 1010 02b4 0000     ................
10100efe:	0000 0005 0201 0000 0400 1010 02cc 0000     ................

10100f0e <__INIT_SECTION__>:
10100f0e:	4e56 0000      	linkw %fp,#0
10100f12:	4e5e           	unlk %fp
10100f14:	4e75           	rts

10100f16 <__FINI_SECTION__>:
10100f16:	4e56 0000      	linkw %fp,#0
10100f1a:	4e5e           	unlk %fp
10100f1c:	4e75           	rts
