
Allocating common symbols
Common symbol       size              file

g_queue_slots       0x30              system.o
g_proc_table        0x60              system.o
gp_mem_pool_list    0x80              system.o
old_stack           0x4               /tmp/ccIOgOsd.o
g_priority_queues   0x32              system.o
gp_mem_pool_lookup  0x80              system.o
main_stack          0x1000            /tmp/ccIOgOsd.o
g_current_process   0x4               system.o

Memory Configuration

Name             Origin             Length             Attributes
ram              0x10100000         0x00100000
*default*        0x00000000         0xffffffff

Linker script and memory map

LOAD /tmp/ccIOgOsd.o
LOAD /tmp/cc6zznXe.o
LOAD /tmp/ccydpo2g.o
LOAD dbug.o
LOAD Hex_to_ASCII.o
LOAD null_process.o
LOAD dummy_processes.o
LOAD system.o
LOAD main.o
START GROUP
LOAD /opt/gcc-coldfire/bin/../lib/gcc/m68k-elf/4.3.2/m5307/libgcc.a
END GROUP
                0x00000000                __DYNAMIC = 0x0
                0x00000000                PROVIDE (hardware_init_hook, 0x0)
                0x00000000                PROVIDE (_hardware_init_hook, 0x0)
                0x00000000                PROVIDE (software_init_hook, 0x0)
                0x00000000                PROVIDE (_software_init_hook, 0x0)

.text           0x10100000      0xf1e
 *(.text)
 .text          0x10100000       0x1e /tmp/ccIOgOsd.o
 *fill*         0x1010001e        0x2 00
 .text          0x10100020       0x54 /tmp/cc6zznXe.o
                0x10100020                asm_trap_entry
 .text          0x10100074        0x8 /tmp/ccydpo2g.o
                0x10100074                trap_1_handler
 .text          0x1010007c       0x9a dbug.o
                0x1010009c                rtx_dbug_outs
                0x1010007c                rtx_dbug_out_char
 *fill*         0x10100116        0x2 00
 .text          0x10100118      0x126 Hex_to_ASCII.o
                0x10100118                printHexAddress
 *fill*         0x1010023e        0x2 00
 .text          0x10100240       0x1a null_process.o
                0x10100240                null_process
 *fill*         0x1010025a        0x2 00
 .text          0x1010025c       0xa0 dummy_processes.o
                0x101002cc                test_proc_5
                0x101002b4                test_proc_4
                0x1010029c                test_proc_3
                0x1010025c                test_proc_1
                0x10100284                test_proc_2
                0x101002e4                test_proc_6
 .text          0x101002fc      0xb7a system.o
                0x101002fc                sys_init
                0x10100d14                get_process_priority
                0x10100d8a                request_memory_block
                0x1010090e                set_process_priority
                0x10100dfa                s_release_memory_block
                0x101007b2                send_message
                0x10100670                scheduler
                0x101007ce                pop
                0x101009a6                set_process_priority_trap_handler
                0x101007c4                receive_message
                0x1010076a                release_processor
                0x1010083c                push
 *fill*         0x10100e76        0x2 00
 .text          0x10100e78       0x1a main.o
                0x10100e78                __main
                0x10100e82                main
                0x10100e94                . = ALIGN (0x4)
 *fill*         0x10100e92        0x2 00
                0x10100e94                __CTOR_LIST__ = .
                0x10100e94        0x4 LONG 0x0 (((__CTOR_END__ - __CTOR_LIST__) / 0x4) - 0x2)
 *(.ctors)
                0x10100e98        0x4 LONG 0x0
                0x10100e9c                __CTOR_END__ = .
                0x10100e9c                __DTOR_LIST__ = .
                0x10100e9c        0x4 LONG 0x0 (((__DTOR_END__ - __DTOR_LIST__) / 0x4) - 0x2)
 *(.dtors)
                0x10100ea0        0x4 LONG 0x0
                0x10100ea4                __DTOR_END__ = .
 *(.rodata*)
 .rodata        0x10100ea4        0x3 Hex_to_ASCII.o
 .rodata        0x10100ea7        0x7 null_process.o
 .rodata        0x10100eae       0x60 system.o
                0x10100eae                process_init_table
 *(.gcc_except_table)
                0x10100f0e                __INIT_SECTION__ = .
                0x10100f0e        0x4 LONG 0x4e560000
 *(.init)
                0x10100f12        0x2 SHORT 0x4e5e
                0x10100f14        0x2 SHORT 0x4e75
                0x10100f16                __FINI_SECTION__ = .
                0x10100f16        0x4 LONG 0x4e560000
 *(.fini)
                0x10100f1a        0x2 SHORT 0x4e5e
                0x10100f1c        0x2 SHORT 0x4e75
                0x10100f1e                _etext = .
 *(.lit)

.data           0x10100f20        0x8
 *(.shdata)
 *(.data)
 .data          0x10100f20        0x0 /tmp/ccIOgOsd.o
 .data          0x10100f20        0x0 /tmp/cc6zznXe.o
 .data          0x10100f20        0x0 /tmp/ccydpo2g.o
 .data          0x10100f20        0x0 dbug.o
 .data          0x10100f20        0x0 Hex_to_ASCII.o
 .data          0x10100f20        0x0 null_process.o
 .data          0x10100f20        0x0 dummy_processes.o
 .data          0x10100f20        0x6 system.o
                0x10100f20                g_first_run
                0x10100f22                g_free_mem
 *fill*         0x10100f26        0x2 00
 .data          0x10100f28        0x0 main.o
                0x10100f28                _edata = .

.bss            0x10100f28     0x11de
                0x10100f28                __bss_start = .
 *(.shbss)
 *(.bss)
 .bss           0x10100f28        0x0 /tmp/ccIOgOsd.o
 .bss           0x10100f28        0x0 /tmp/cc6zznXe.o
 .bss           0x10100f28        0x0 /tmp/ccydpo2g.o
 .bss           0x10100f28        0x0 dbug.o
 .bss           0x10100f28        0x0 Hex_to_ASCII.o
 .bss           0x10100f28        0x0 null_process.o
 .bss           0x10100f28        0x0 dummy_processes.o
 .bss           0x10100f28        0x8 system.o
                0x10100f2c                g_asmBridge
                0x10100f28                g_kernelStack
 .bss           0x10100f30        0x0 main.o
 *(COMMON)
 COMMON         0x10100f30     0x1010 /tmp/ccIOgOsd.o
                0x10100f30                old_stack
                0x10100f40                main_stack
 COMMON         0x10101f40      0x1c6 system.o
                0x10101f40                g_queue_slots
                0x10101f70                g_proc_table
                0x10101fd0                gp_mem_pool_list
                0x10102050                g_priority_queues
                0x10102082                gp_mem_pool_lookup
                0x10102102                g_current_process
                0x10102108                _end = ALIGN (0x8)
                0x10102108                __end = _end

.stab
 *(.stab)

.stabstr
 *(.stabstr)

__REGISTER_RTX__
                0x10300000        0x0
                0x10300000                __REGISTER_RTX_ENTRY__ = <code 345> (.)
 *(__REGISTER_RTX__)
                0x10380000                __REGISTER_TEST_PROCS_ENTRY__ = 0x10380000
                0x10400000                __RTX_TEST_CODE_ENTRY__ = 0x10400000

__RTX_TEST_DATA__
 *(__RTX_TEST_DATA__)
OUTPUT(main.bin elf32-m68k)

.comment        0x00000000       0xea
 .comment       0x00000000       0x27 dbug.o
 .comment       0x00000027       0x27 Hex_to_ASCII.o
 .comment       0x0000004e       0x27 null_process.o
 .comment       0x00000075       0x27 dummy_processes.o
 .comment       0x0000009c       0x27 system.o
 .comment       0x000000c3       0x27 main.o
