
Allocating common symbols
Common symbol       size              file

old_stack           0x4               /tmp/ccWFCzPn.o
main_stack          0x1000            /tmp/ccWFCzPn.o

Memory Configuration

Name             Origin             Length             Attributes
ram              0x10100000         0x00100000
*default*        0x00000000         0xffffffff

Linker script and memory map

LOAD /tmp/ccWFCzPn.o
LOAD /tmp/ccQRGMDz.o
LOAD dbug.o
LOAD uart1.o
START GROUP
LOAD /opt/gcc-coldfire/bin/../lib/gcc/m68k-elf/4.3.2/m5307/libgcc.a
END GROUP
                0x00000000                __DYNAMIC = 0x0
                0x00000000                PROVIDE (hardware_init_hook, 0x0)
                0x00000000                PROVIDE (_hardware_init_hook, 0x0)
                0x00000000                PROVIDE (software_init_hook, 0x0)
                0x00000000                PROVIDE (_software_init_hook, 0x0)

.text           0x10100000      0x2d4
 *(.text)
 .text          0x10100000       0x1e /tmp/ccWFCzPn.o
 *fill*         0x1010001e        0x2 00
 .text          0x10100020       0x44 /tmp/ccQRGMDz.o
                0x10100020                asm_serial_entry
 .text          0x10100064       0x9a dbug.o
                0x10100084                rtx_dbug_outs
                0x10100064                rtx_dbug_out_char
 *fill*         0x101000fe        0x2 00
 .text          0x10100100      0x1b2 uart1.o
                0x10100100                __main
                0x1010018a                ColdFire_vbr_init
                0x1010010a                c_serial_handler
                0x101001a2                main
                0x101002b4                . = ALIGN (0x4)
 *fill*         0x101002b2        0x2 00
                0x101002b4                __CTOR_LIST__ = .
                0x101002b4        0x4 LONG 0x0 (((__CTOR_END__ - __CTOR_LIST__) / 0x4) - 0x2)
 *(.ctors)
                0x101002b8        0x4 LONG 0x0
                0x101002bc                __CTOR_END__ = .
                0x101002bc                __DTOR_LIST__ = .
                0x101002bc        0x4 LONG 0x0 (((__DTOR_END__ - __DTOR_LIST__) / 0x4) - 0x2)
 *(.dtors)
                0x101002c0        0x4 LONG 0x0
                0x101002c4                __DTOR_END__ = .
 *(.rodata*)
 *(.gcc_except_table)
                0x101002c4                __INIT_SECTION__ = .
                0x101002c4        0x4 LONG 0x4e560000
 *(.init)
                0x101002c8        0x2 SHORT 0x4e5e
                0x101002ca        0x2 SHORT 0x4e75
                0x101002cc                __FINI_SECTION__ = .
                0x101002cc        0x4 LONG 0x4e560000
 *(.fini)
                0x101002d0        0x2 SHORT 0x4e5e
                0x101002d2        0x2 SHORT 0x4e75
                0x101002d4                _etext = .
 *(.lit)

.data           0x101002d4       0x16
 *(.shdata)
 *(.data)
 .data          0x101002d4        0x0 /tmp/ccWFCzPn.o
 .data          0x101002d4        0x0 /tmp/ccQRGMDz.o
 .data          0x101002d4        0x0 dbug.o
 .data          0x101002d4       0x16 uart1.o
                0x101002d4                CharIn
                0x101002da                StringHack
                0x101002d6                Caught
                0x101002ea                _edata = .

.bss            0x101002ec     0x1014
                0x101002ec                __bss_start = .
 *(.shbss)
 *(.bss)
 .bss           0x101002ec        0x0 /tmp/ccWFCzPn.o
 .bss           0x101002ec        0x0 /tmp/ccQRGMDz.o
 .bss           0x101002ec        0x0 dbug.o
 .bss           0x101002ec        0x1 uart1.o
                0x101002ec                CharOut
 *(COMMON)
 *fill*         0x101002ed        0x3 00
 COMMON         0x101002f0     0x1010 /tmp/ccWFCzPn.o
                0x101002f0                old_stack
                0x10100300                main_stack
                0x10101300                _end = ALIGN (0x8)
                0x10101300                __end = _end

.stab
 *(.stab)

.stabstr
 *(.stabstr)

__REGISTER_RTX__
                0x10300000        0x0
                0x10300000                __REGISTER_RTX_ENTRY__ = <code 345> (.)
 *(__REGISTER_RTX__)
                0x10380000                __REGISTER_TEST_PROCS_ENTRY__ = 0x10380000
                0x10400000                __RTX_TEST_CODE_ENTRY__ = 0x10400000

__RTX_TEST_DATA__
 *(__RTX_TEST_DATA__)
OUTPUT(uart1.bin elf32-m68k)

.comment        0x00000000       0x4e
 .comment       0x00000000       0x27 dbug.o
 .comment       0x00000027       0x27 uart1.o
